target datalayout = "e-m:e-p270:32:32-p271:32:32-p272:64:64-i64:64-i128:128-f80:128-n8:16:32:64-S128"
target triple = "x86_64-pc-linux-gnu"

%struct._object = type { %union.anon.26, ptr }
%union.anon.26 = type { i64 }
%struct._expr = type { i32, %union.anon, i32, i32, i32, i32 }
%union.anon = type { %struct.anon.1 }
%struct.anon.1 = type { ptr, i32, ptr }
%struct.anon.18 = type { ptr, ptr }
%struct.asdl_expr_seq = type { i64, ptr, [1 x ptr] }
%struct.anon.17 = type { ptr }
%struct.anon.27 = type { i32, i32 }

@PyExc_SystemError = external global ptr, align 8
@.str.52 = private unnamed_addr constant [2 x i8] c"f\00", align 1
@.str.53 = private unnamed_addr constant [40 x i8] c"unknown expression kind inside f-string\00", align 1

; Function Attrs: alwaysinline nounwind uwtable
define internal i32 @_Py_IsImmortal(ptr noundef %0) #5 {
  %2 = alloca ptr, align 8
  store ptr %0, ptr %2, align 8, !tbaa !16
  %3 = load ptr, ptr %2, align 8, !tbaa !16
  %4 = getelementptr inbounds nuw %struct._object, ptr %3, i32 0, i32 0
  %5 = getelementptr inbounds nuw %struct.anon.27, ptr %4, i32 0, i32 0
  %6 = load i32, ptr %5, align 8, !tbaa !15
  %7 = icmp slt i32 %6, 0
  %8 = zext i1 %7 to i32
  ret i32 %8
}

; Function Attrs: nounwind uwtable
define internal i32 @append_fstring_element(ptr noundef %0, ptr noundef %1, i1 noundef zeroext %2) #0 {
  %4 = alloca i32, align 4
  %5 = alloca ptr, align 8
  %6 = alloca ptr, align 8
  %7 = alloca i8, align 1
  store ptr %0, ptr %5, align 8, !tbaa !11
  store ptr %1, ptr %6, align 8, !tbaa !4
  %8 = zext i1 %2 to i8
  store i8 %8, ptr %7, align 1, !tbaa !27
  %9 = load ptr, ptr %6, align 8, !tbaa !4
  %10 = getelementptr inbounds nuw %struct._expr, ptr %9, i32 0, i32 0
  %11 = load i32, ptr %10, align 8, !tbaa !13
  switch i32 %11, label %29 [
    i32 20, label %12
    i32 19, label %19
    i32 18, label %25
  ]

12:                                               ; preds = %3
  %13 = load ptr, ptr %5, align 8, !tbaa !11
  %14 = load ptr, ptr %6, align 8, !tbaa !4
  %15 = getelementptr inbounds nuw %struct._expr, ptr %14, i32 0, i32 1
  %16 = getelementptr inbounds nuw %struct.anon.18, ptr %15, i32 0, i32 0
  %17 = load ptr, ptr %16, align 8, !tbaa !15
  %18 = call i32 @append_fstring_unicode(ptr noundef %13, ptr noundef %17)
  store i32 %18, ptr %4, align 4
  br label %31

19:                                               ; preds = %3
  %20 = load ptr, ptr %5, align 8, !tbaa !11
  %21 = load ptr, ptr %6, align 8, !tbaa !4
  %22 = load i8, ptr %7, align 1, !tbaa !27, !range !29, !noundef !30
  %23 = trunc i8 %22 to i1
  %24 = call i32 @append_joinedstr(ptr noundef %20, ptr noundef %21, i1 noundef zeroext %23)
  store i32 %24, ptr %4, align 4
  br label %31

25:                                               ; preds = %3
  %26 = load ptr, ptr %5, align 8, !tbaa !11
  %27 = load ptr, ptr %6, align 8, !tbaa !4
  %28 = call i32 @append_formattedvalue(ptr noundef %26, ptr noundef %27)
  store i32 %28, ptr %4, align 4
  br label %31

29:                                               ; preds = %3
  %30 = load ptr, ptr @PyExc_SystemError, align 8, !tbaa !16
  call void @PyErr_SetString(ptr noundef %30, ptr noundef @.str.53)
  store i32 -1, ptr %4, align 4
  br label %31

31:                                               ; preds = %29, %25, %19, %12
  %32 = load i32, ptr %4, align 4
  ret i32 %32
}

; Function Attrs: alwaysinline nounwind uwtable
define internal void @Py_DECREF(ptr noundef %0) #5 {
  %2 = alloca ptr, align 8
  store ptr %0, ptr %2, align 8, !tbaa !16
  %3 = load ptr, ptr %2, align 8, !tbaa !16
  %4 = call i32 @_Py_IsImmortal(ptr noundef %3)
  %5 = icmp ne i32 %4, 0
  br i1 %5, label %6, label %7

6:                                                ; preds = %1
  br label %16

7:                                                ; preds = %1
  %8 = load ptr, ptr %2, align 8, !tbaa !16
  %9 = getelementptr inbounds nuw %struct._object, ptr %8, i32 0, i32 0
  %10 = getelementptr inbounds nuw %struct.anon.27, ptr %9, i32 0, i32 0
  %11 = load i32, ptr %10, align 8, !tbaa !15
  %12 = add i32 %11, -1
  store i32 %12, ptr %10, align 8, !tbaa !15
  %13 = icmp eq i32 %12, 0
  br i1 %13, label %14, label %16

14:                                               ; preds = %7
  %15 = load ptr, ptr %2, align 8, !tbaa !16
  call void @_Py_Dealloc(ptr noundef %15)
  br label %16

16:                                               ; preds = %6, %14, %7
  ret void
}

; Function Attrs: nounwind uwtable
define internal i32 @append_charp(ptr noundef %0, ptr noundef %1) #0 {
  %3 = alloca ptr, align 8
  %4 = alloca ptr, align 8
  store ptr %0, ptr %3, align 8, !tbaa !11
  store ptr %1, ptr %4, align 8, !tbaa !18
  %5 = load ptr, ptr %3, align 8, !tbaa !11
  %6 = load ptr, ptr %4, align 8, !tbaa !18
  %7 = call i32 @PyUnicodeWriter_WriteUTF8(ptr noundef %5, ptr noundef %6, i64 noundef -1)
  ret i32 %7
}

; Function Attrs: nounwind uwtable
define internal ptr @build_fstring_body(ptr noundef %0, i1 noundef zeroext %1) #0 {
  %3 = alloca ptr, align 8
  %4 = alloca ptr, align 8
  %5 = alloca i8, align 1
  %6 = alloca ptr, align 8
  %7 = alloca i32, align 4
  %8 = alloca i64, align 8
  %9 = alloca i64, align 8
  store ptr %0, ptr %4, align 8, !tbaa !20
  %10 = zext i1 %1 to i8
  store i8 %10, ptr %5, align 1, !tbaa !27
  call void @llvm.lifetime.start.p0(i64 8, ptr %6) #6
  %11 = call ptr @PyUnicodeWriter_Create(i64 noundef 256)
  store ptr %11, ptr %6, align 8, !tbaa !11
  %12 = load ptr, ptr %6, align 8, !tbaa !11
  %13 = icmp eq ptr %12, null
  br i1 %13, label %14, label %15

14:                                               ; preds = %2
  store ptr null, ptr %3, align 8
  store i32 1, ptr %7, align 4
  br label %53

15:                                               ; preds = %2
  call void @llvm.lifetime.start.p0(i64 8, ptr %8) #6
  %16 = load ptr, ptr %4, align 8, !tbaa !20
  %17 = icmp eq ptr %16, null
  br i1 %17, label %18, label %19

18:                                               ; preds = %15
  br label %23

19:                                               ; preds = %15
  %20 = load ptr, ptr %4, align 8, !tbaa !20
  %21 = getelementptr inbounds nuw %struct.asdl_expr_seq, ptr %20, i32 0, i32 0
  %22 = load i64, ptr %21, align 8, !tbaa !21
  br label %23

23:                                               ; preds = %19, %18
  %24 = phi i64 [ 0, %18 ], [ %22, %19 ]
  store i64 %24, ptr %8, align 8, !tbaa !24
  call void @llvm.lifetime.start.p0(i64 8, ptr %9) #6
  store i64 0, ptr %9, align 8, !tbaa !24
  br label %25

25:                                               ; preds = %44, %23
  %26 = load i64, ptr %9, align 8, !tbaa !24
  %27 = load i64, ptr %8, align 8, !tbaa !24
  %28 = icmp slt i64 %26, %27
  br i1 %28, label %30, label %29

29:                                               ; preds = %25
  store i32 2, ptr %7, align 4
  br label %47

30:                                               ; preds = %25
  %31 = load ptr, ptr %6, align 8, !tbaa !11
  %32 = load ptr, ptr %4, align 8, !tbaa !20
  %33 = getelementptr inbounds nuw %struct.asdl_expr_seq, ptr %32, i32 0, i32 2
  %34 = load i64, ptr %9, align 8, !tbaa !24
  %35 = getelementptr [1 x ptr], ptr %33, i64 0, i64 %34
  %36 = load ptr, ptr %35, align 8, !tbaa !4
  %37 = load i8, ptr %5, align 1, !tbaa !27, !range !29, !noundef !30
  %38 = trunc i8 %37 to i1
  %39 = call i32 @append_fstring_element(ptr noundef %31, ptr noundef %36, i1 noundef zeroext %38)
  %40 = icmp eq i32 -1, %39
  br i1 %40, label %41, label %43

41:                                               ; preds = %30
  %42 = load ptr, ptr %6, align 8, !tbaa !11
  call void @PyUnicodeWriter_Discard(ptr noundef %42)
  store ptr null, ptr %3, align 8
  store i32 1, ptr %7, align 4
  br label %47

43:                                               ; preds = %30
  br label %44

44:                                               ; preds = %43
  %45 = load i64, ptr %9, align 8, !tbaa !24
  %46 = add i64 %45, 1
  store i64 %46, ptr %9, align 8, !tbaa !24
  br label %25, !llvm.loop !79

47:                                               ; preds = %41, %29
  call void @llvm.lifetime.end.p0(i64 8, ptr %9) #6
  %48 = load i32, ptr %7, align 4
  switch i32 %48, label %52 [
    i32 2, label %49
  ]

49:                                               ; preds = %47
  %50 = load ptr, ptr %6, align 8, !tbaa !11
  %51 = call ptr @PyUnicodeWriter_Finish(ptr noundef %50)
  store ptr %51, ptr %3, align 8
  store i32 1, ptr %7, align 4
  br label %52

52:                                               ; preds = %49, %47
  call void @llvm.lifetime.end.p0(i64 8, ptr %8) #6
  br label %53

53:                                               ; preds = %52, %14
  call void @llvm.lifetime.end.p0(i64 8, ptr %6) #6
  %54 = load ptr, ptr %3, align 8
  ret ptr %54
}

; Function Attrs: nounwind uwtable
define internal i32 @append_joinedstr(ptr noundef %0, ptr noundef %1, i1 noundef zeroext %2) #0 {
  %4 = alloca i32, align 4
  %5 = alloca ptr, align 8
  %6 = alloca ptr, align 8
  %7 = alloca i8, align 1
  %8 = alloca i32, align 4
  %9 = alloca ptr, align 8
  %10 = alloca i32, align 4
  store ptr %0, ptr %5, align 8, !tbaa !11
  store ptr %1, ptr %6, align 8, !tbaa !4
  %11 = zext i1 %2 to i8
  store i8 %11, ptr %7, align 1, !tbaa !27
  call void @llvm.lifetime.start.p0(i64 4, ptr %8) #6
  store i32 -1, ptr %8, align 4, !tbaa !9
  call void @llvm.lifetime.start.p0(i64 8, ptr %9) #6
  %12 = load ptr, ptr %6, align 8, !tbaa !4
  %13 = getelementptr inbounds nuw %struct._expr, ptr %12, i32 0, i32 1
  %14 = getelementptr inbounds nuw %struct.anon.17, ptr %13, i32 0, i32 0
  %15 = load ptr, ptr %14, align 8, !tbaa !15
  %16 = load i8, ptr %7, align 1, !tbaa !27, !range !29, !noundef !30
  %17 = trunc i8 %16 to i1
  %18 = call ptr @build_fstring_body(ptr noundef %15, i1 noundef zeroext %17)
  store ptr %18, ptr %9, align 8, !tbaa !16
  %19 = load ptr, ptr %9, align 8, !tbaa !16
  %20 = icmp ne ptr %19, null
  br i1 %20, label %22, label %21

21:                                               ; preds = %3
  store i32 -1, ptr %4, align 4
  store i32 1, ptr %10, align 4
  br label %43

22:                                               ; preds = %3
  %23 = load i8, ptr %7, align 1, !tbaa !27, !range !29, !noundef !30
  %24 = trunc i8 %23 to i1
  br i1 %24, label %36, label %25

25:                                               ; preds = %22
  %26 = load ptr, ptr %5, align 8, !tbaa !11
  %27 = call i32 @append_charp(ptr noundef %26, ptr noundef @.str.52)
  %28 = icmp ne i32 -1, %27
  br i1 %28, label %29, label %35

29:                                               ; preds = %25
  %30 = load ptr, ptr %5, align 8, !tbaa !11
  %31 = load ptr, ptr %9, align 8, !tbaa !16
  %32 = call i32 @append_repr(ptr noundef %30, ptr noundef %31)
  %33 = icmp ne i32 -1, %32
  br i1 %33, label %34, label %35

34:                                               ; preds = %29
  store i32 0, ptr %8, align 4, !tbaa !9
  br label %35

35:                                               ; preds = %34, %29, %25
  br label %40

36:                                               ; preds = %22
  %37 = load ptr, ptr %5, align 8, !tbaa !11
  %38 = load ptr, ptr %9, align 8, !tbaa !16
  %39 = call i32 @PyUnicodeWriter_WriteStr(ptr noundef %37, ptr noundef %38)
  store i32 %39, ptr %8, align 4, !tbaa !9
  br label %40

40:                                               ; preds = %36, %35
  %41 = load ptr, ptr %9, align 8, !tbaa !16
  call void @Py_DECREF(ptr noundef %41)
  %42 = load i32, ptr %8, align 4, !tbaa !9
  store i32 %42, ptr %4, align 4
  store i32 1, ptr %10, align 4
  br label %43

43:                                               ; preds = %40, %21
  call void @llvm.lifetime.end.p0(i64 8, ptr %9) #6
  call void @llvm.lifetime.end.p0(i64 4, ptr %8) #6
  %44 = load i32, ptr %4, align 4
  ret i32 %44
}