; Function Attrs: nounwind uwtable
define internal fastcc i32 @append_joinedstr(ptr noundef nonnull %0, ptr noundef readonly captures(none) %1, i1 noundef zeroext %2) unnamed_addr #0 {
  %4 = getelementptr inbounds nuw i8, ptr %1, i64 8
  %5 = load ptr, ptr %4, align 8, !tbaa !9
  %6 = tail call ptr @PyUnicodeWriter_Create(i64 noundef 256) #3
  %7 = icmp eq ptr %6, null
  br i1 %7, label %Py_DECREF.exit, label %8

8:                                                ; preds = %3
  %9 = icmp eq ptr %5, null
  br i1 %9, label %build_fstring_body.exit, label %10

10:                                               ; preds = %8
  %11 = load i64, ptr %5, align 8, !tbaa !10
  %.not.i1520 = icmp sgt i64 %11, 0
  br i1 %.not.i1520, label %.lr.ph, label %build_fstring_body.exit

.lr.ph:                                           ; preds = %10
  %12 = getelementptr inbounds nuw i8, ptr %5, i64 16
  br label %15

13:                                               ; preds = %append_fstring_element.exit
  %14 = add nuw nsw i64 %.0.i21, 1
  %exitcond.not = icmp eq i64 %14, %11
  br i1 %exitcond.not, label %build_fstring_body.exit, label %15, !llvm.loop !35

15:                                               ; preds = %.lr.ph, %13
  %.0.i21 = phi i64 [ 0, %.lr.ph ], [ %14, %13 ]
  %16 = getelementptr [1 x ptr], ptr %12, i64 0, i64 %.0.i21
  %17 = load ptr, ptr %16, align 8, !tbaa !16
  %18 = load i32, ptr %17, align 8, !tbaa !4
  switch i32 %18, label %append_fstring_element.exit.thread [
    i32 20, label %19
    i32 19, label %23
    i32 18, label %25
  ]

19:                                               ; preds = %15
  %20 = getelementptr inbounds nuw i8, ptr %17, i64 8
  %21 = load ptr, ptr %20, align 8, !tbaa !9
  %22 = tail call fastcc i32 @append_fstring_unicode(ptr noundef nonnull %6, ptr noundef %21)
  br label %append_fstring_element.exit

23:                                               ; preds = %15
  %24 = tail call fastcc i32 @append_joinedstr(ptr noundef nonnull %6, ptr noundef nonnull %17, i1 noundef zeroext %2)
  br label %append_fstring_element.exit

25:                                               ; preds = %15
  %26 = tail call fastcc i32 @append_formattedvalue(ptr noundef nonnull %6, ptr noundef nonnull %17)
  br label %append_fstring_element.exit

append_fstring_element.exit.thread:               ; preds = %15
  %27 = load ptr, ptr @PyExc_SystemError, align 8, !tbaa !18
  tail call void @PyErr_SetString(ptr noundef %27, ptr noundef nonnull @.str.53) #3
  br label %.loopexit

append_fstring_element.exit:                      ; preds = %19, %23, %25
  %.0.i16 = phi i32 [ %26, %25 ], [ %24, %23 ], [ %22, %19 ]
  %28 = icmp eq i32 %.0.i16, -1
  br i1 %28, label %.loopexit, label %13

.loopexit:                                        ; preds = %append_fstring_element.exit, %append_fstring_element.exit.thread
  tail call void @PyUnicodeWriter_Discard(ptr noundef nonnull %6) #3
  br label %Py_DECREF.exit

build_fstring_body.exit:                          ; preds = %13, %8, %10
  %29 = tail call ptr @PyUnicodeWriter_Finish(ptr noundef nonnull %6) #3
  %.not = icmp eq ptr %29, null
  br i1 %.not, label %Py_DECREF.exit, label %30

30:                                               ; preds = %build_fstring_body.exit
  br i1 %2, label %35, label %31

31:                                               ; preds = %30
  %32 = tail call i32 @PyUnicodeWriter_WriteUTF8(ptr noundef nonnull %0, ptr noundef nonnull @.str.52, i64 noundef -1) #3
  %.not13 = icmp eq i32 %32, -1
  br i1 %.not13, label %37, label %33

33:                                               ; preds = %31
  %34 = tail call fastcc i32 @append_repr(ptr noundef %0, ptr noundef nonnull %29)
  %.not14 = icmp eq i32 %34, -1
  %spec.select = sext i1 %.not14 to i32
  br label %37

35:                                               ; preds = %30
  %36 = tail call i32 @PyUnicodeWriter_WriteStr(ptr noundef nonnull %0, ptr noundef nonnull %29) #3
  br label %37

37:                                               ; preds = %33, %31, %35
  %.011 = phi i32 [ %36, %35 ], [ -1, %31 ], [ %spec.select, %33 ]
  %38 = load i32, ptr %29, align 8, !tbaa !9
  %.not.i = icmp sgt i32 %38, -1
  br i1 %.not.i, label %39, label %Py_DECREF.exit

39:                                               ; preds = %37
  %40 = add nsw i32 %38, -1
  store i32 %40, ptr %29, align 8, !tbaa !9
  %41 = icmp eq i32 %40, 0
  br i1 %41, label %42, label %Py_DECREF.exit

42:                                               ; preds = %39
  tail call void @_Py_Dealloc(ptr noundef nonnull %29) #3
  br label %Py_DECREF.exit

Py_DECREF.exit:                                   ; preds = %.loopexit, %3, %42, %39, %37, %build_fstring_body.exit
  %.0 = phi i32 [ -1, %build_fstring_body.exit ], [ %.011, %37 ], [ %.011, %39 ], [ %.011, %42 ], [ -1, %3 ], [ -1, %.loopexit ]
  ret i32 %.0
}